target datalayout = "e-m:e-p270:32:32-p271:32:32-p272:64:64-i64:64-i128:128-f80:128-n8:16:32:64-S128"
target triple = "x86_64-pc-linux-gnu"

%"class.cv::Matx" = type { [3 x double] }

; Function Attrs: inlinehint mustprogress nounwind uwtable
define linkonce_odr noundef double @_ZSt3powIdiEN9__gnu_cxx11__promote_2IT_T0_NS0_9__promoteIS2_Xsr3std12__is_integerIS2_EE7__valueEE6__typeENS4_IS3_Xsr3std12__is_integerIS3_EE7__valueEE6__typeEE6__typeES2_S3_(double noundef %0, i32 noundef %1) #3 comdat {
  %3 = alloca double, align 8
  %4 = alloca i32, align 4
  store double %0, ptr %3, align 8, !tbaa !14
  store i32 %1, ptr %4, align 4, !tbaa !10
  %5 = load double, ptr %3, align 8, !tbaa !14
  %6 = load i32, ptr %4, align 4, !tbaa !10
  %7 = sitofp i32 %6 to double
  %8 = call double @pow(double noundef %5, double noundef %7) #13, !tbaa !10
  ret double %8
}

; Function Attrs: inlinehint mustprogress nounwind uwtable
define linkonce_odr hidden noundef nonnull align 8 dereferenceable(8) ptr @_ZNK2cv3VecIdLi3EEixEi(ptr noundef nonnull align 8 dereferenceable(24) %0, i32 noundef %1) #3 comdat align 2 {
  %3 = alloca ptr, align 8
  %4 = alloca i32, align 4
  store ptr %0, ptr %3, align 8, !tbaa !3
  store i32 %1, ptr %4, align 4, !tbaa !10
  %5 = load ptr, ptr %3, align 8
  %6 = getelementptr inbounds nuw %"class.cv::Matx", ptr %5, i32 0, i32 0
  %7 = load i32, ptr %4, align 4, !tbaa !10
  %8 = sext i32 %7 to i64
  %9 = getelementptr inbounds [3 x double], ptr %6, i64 0, i64 %8
  ret ptr %9
}

; Function Attrs: mustprogress uwtable
define hidden noundef double @_ZN2cv3ccm10deltaCIE94ERKNS_3VecIdLi3EEES4_RKdS6_S6_S6_S6_(ptr noundef nonnull align 8 dereferenceable(24) %0, ptr noundef nonnull align 8 dereferenceable(24) %1, ptr noundef nonnull align 8 dereferenceable(8) %2, ptr noundef nonnull align 8 dereferenceable(8) %3, ptr noundef nonnull align 8 dereferenceable(8) %4, ptr noundef nonnull align 8 dereferenceable(8) %5, ptr noundef nonnull align 8 dereferenceable(8) %6) #0 {
  %8 = alloca ptr, align 8
  %9 = alloca ptr, align 8
  %10 = alloca ptr, align 8
  %11 = alloca ptr, align 8
  %12 = alloca ptr, align 8
  %13 = alloca ptr, align 8
  %14 = alloca ptr, align 8
  %15 = alloca double, align 8
  %16 = alloca double, align 8
  %17 = alloca double, align 8
  %18 = alloca double, align 8
  %19 = alloca double, align 8
  %20 = alloca double, align 8
  %21 = alloca double, align 8
  %22 = alloca double, align 8
  %23 = alloca double, align 8
  %24 = alloca double, align 8
  %25 = alloca double, align 8
  store ptr %0, ptr %8, align 8, !tbaa !3
  store ptr %1, ptr %9, align 8, !tbaa !3
  store ptr %2, ptr %10, align 8, !tbaa !12
  store ptr %3, ptr %11, align 8, !tbaa !12
  store ptr %4, ptr %12, align 8, !tbaa !12
  store ptr %5, ptr %13, align 8, !tbaa !12
  store ptr %6, ptr %14, align 8, !tbaa !12
  call void @llvm.lifetime.start.p0(i64 8, ptr %15) #13
  %26 = load ptr, ptr %8, align 8, !tbaa !3
  %27 = call noundef nonnull align 8 dereferenceable(8) ptr @_ZNK2cv3VecIdLi3EEixEi(ptr noundef nonnull align 8 dereferenceable(24) %26, i32 noundef 0)
  %28 = load double, ptr %27, align 8, !tbaa !14
  %29 = load ptr, ptr %9, align 8, !tbaa !3
  %30 = call noundef nonnull align 8 dereferenceable(8) ptr @_ZNK2cv3VecIdLi3EEixEi(ptr noundef nonnull align 8 dereferenceable(24) %29, i32 noundef 0)
  %31 = load double, ptr %30, align 8, !tbaa !14
  %32 = fsub double %28, %31
  store double %32, ptr %15, align 8, !tbaa !14
  call void @llvm.lifetime.start.p0(i64 8, ptr %16) #13
  %33 = load ptr, ptr %8, align 8, !tbaa !3
  %34 = call noundef nonnull align 8 dereferenceable(8) ptr @_ZNK2cv3VecIdLi3EEixEi(ptr noundef nonnull align 8 dereferenceable(24) %33, i32 noundef 1)
  %35 = load double, ptr %34, align 8, !tbaa !14
  %36 = call noundef double @_ZSt3powIdiEN9__gnu_cxx11__promote_2IT_T0_NS0_9__promoteIS2_Xsr3std12__is_integerIS2_EE7__valueEE6__typeENS4_IS3_Xsr3std12__is_integerIS3_EE7__valueEE6__typeEE6__typeES2_S3_(double noundef %35, i32 noundef 2)
  %37 = load ptr, ptr %8, align 8, !tbaa !3
  %38 = call noundef nonnull align 8 dereferenceable(8) ptr @_ZNK2cv3VecIdLi3EEixEi(ptr noundef nonnull align 8 dereferenceable(24) %37, i32 noundef 2)
  %39 = load double, ptr %38, align 8, !tbaa !14
  %40 = call noundef double @_ZSt3powIdiEN9__gnu_cxx11__promote_2IT_T0_NS0_9__promoteIS2_Xsr3std12__is_integerIS2_EE7__valueEE6__typeENS4_IS3_Xsr3std12__is_integerIS3_EE7__valueEE6__typeEE6__typeES2_S3_(double noundef %39, i32 noundef 2)
  %41 = fadd double %36, %40
  %42 = call double @sqrt(double noundef %41) #13, !tbaa !10
  store double %42, ptr %16, align 8, !tbaa !14
  call void @llvm.lifetime.start.p0(i64 8, ptr %17) #13
  %43 = load ptr, ptr %9, align 8, !tbaa !3
  %44 = call noundef nonnull align 8 dereferenceable(8) ptr @_ZNK2cv3VecIdLi3EEixEi(ptr noundef nonnull align 8 dereferenceable(24) %43, i32 noundef 1)
  %45 = load double, ptr %44, align 8, !tbaa !14
  %46 = call noundef double @_ZSt3powIdiEN9__gnu_cxx11__promote_2IT_T0_NS0_9__promoteIS2_Xsr3std12__is_integerIS2_EE7__valueEE6__typeENS4_IS3_Xsr3std12__is_integerIS3_EE7__valueEE6__typeEE6__typeES2_S3_(double noundef %45, i32 noundef 2)
  %47 = load ptr, ptr %9, align 8, !tbaa !3
  %48 = call noundef nonnull align 8 dereferenceable(8) ptr @_ZNK2cv3VecIdLi3EEixEi(ptr noundef nonnull align 8 dereferenceable(24) %47, i32 noundef 2)
  %49 = load double, ptr %48, align 8, !tbaa !14
  %50 = call noundef double @_ZSt3powIdiEN9__gnu_cxx11__promote_2IT_T0_NS0_9__promoteIS2_Xsr3std12__is_integerIS2_EE7__valueEE6__typeENS4_IS3_Xsr3std12__is_integerIS3_EE7__valueEE6__typeEE6__typeES2_S3_(double noundef %49, i32 noundef 2)
  %51 = fadd double %46, %50
  %52 = call double @sqrt(double noundef %51) #13, !tbaa !10
  store double %52, ptr %17, align 8, !tbaa !14
  call void @llvm.lifetime.start.p0(i64 8, ptr %18) #13
  %53 = load double, ptr %16, align 8, !tbaa !14
  %54 = load double, ptr %17, align 8, !tbaa !14
  %55 = fsub double %53, %54
  store double %55, ptr %18, align 8, !tbaa !14
  call void @llvm.lifetime.start.p0(i64 8, ptr %19) #13
  %56 = load ptr, ptr %8, align 8, !tbaa !3
  %57 = call noundef nonnull align 8 dereferenceable(8) ptr @_ZNK2cv3VecIdLi3EEixEi(ptr noundef nonnull align 8 dereferenceable(24) %56, i32 noundef 1)
  %58 = load double, ptr %57, align 8, !tbaa !14
  %59 = load ptr, ptr %9, align 8, !tbaa !3
  %60 = call noundef nonnull align 8 dereferenceable(8) ptr @_ZNK2cv3VecIdLi3EEixEi(ptr noundef nonnull align 8 dereferenceable(24) %59, i32 noundef 1)
  %61 = load double, ptr %60, align 8, !tbaa !14
  %62 = fsub double %58, %61
  store double %62, ptr %19, align 8, !tbaa !14
  call void @llvm.lifetime.start.p0(i64 8, ptr %20) #13
  %63 = load ptr, ptr %8, align 8, !tbaa !3
  %64 = call noundef nonnull align 8 dereferenceable(8) ptr @_ZNK2cv3VecIdLi3EEixEi(ptr noundef nonnull align 8 dereferenceable(24) %63, i32 noundef 2)
  %65 = load double, ptr %64, align 8, !tbaa !14
  %66 = load ptr, ptr %9, align 8, !tbaa !3
  %67 = call noundef nonnull align 8 dereferenceable(8) ptr @_ZNK2cv3VecIdLi3EEixEi(ptr noundef nonnull align 8 dereferenceable(24) %66, i32 noundef 2)
  %68 = load double, ptr %67, align 8, !tbaa !14
  %69 = fsub double %65, %68
  store double %69, ptr %20, align 8, !tbaa !14
  call void @llvm.lifetime.start.p0(i64 8, ptr %21) #13
  %70 = load double, ptr %19, align 8, !tbaa !14
  %71 = call noundef double @_ZSt3powIdiEN9__gnu_cxx11__promote_2IT_T0_NS0_9__promoteIS2_Xsr3std12__is_integerIS2_EE7__valueEE6__typeENS4_IS3_Xsr3std12__is_integerIS3_EE7__valueEE6__typeEE6__typeES2_S3_(double noundef %70, i32 noundef 2)
  %72 = load double, ptr %20, align 8, !tbaa !14
  %73 = call noundef double @_ZSt3powIdiEN9__gnu_cxx11__promote_2IT_T0_NS0_9__promoteIS2_Xsr3std12__is_integerIS2_EE7__valueEE6__typeENS4_IS3_Xsr3std12__is_integerIS3_EE7__valueEE6__typeEE6__typeES2_S3_(double noundef %72, i32 noundef 2)
  %74 = fadd double %71, %73
  %75 = load double, ptr %18, align 8, !tbaa !14
  %76 = call noundef double @_ZSt3powIdiEN9__gnu_cxx11__promote_2IT_T0_NS0_9__promoteIS2_Xsr3std12__is_integerIS2_EE7__valueEE6__typeENS4_IS3_Xsr3std12__is_integerIS3_EE7__valueEE6__typeEE6__typeES2_S3_(double noundef %75, i32 noundef 2)
  %77 = fsub double %74, %76
  store double %77, ptr %21, align 8, !tbaa !14
  call void @llvm.lifetime.start.p0(i64 8, ptr %22) #13
  %78 = load ptr, ptr %13, align 8, !tbaa !12
  %79 = load double, ptr %78, align 8, !tbaa !14
  %80 = load double, ptr %16, align 8, !tbaa !14
  %81 = call double @llvm.fmuladd.f64(double %79, double %80, double 1.000000e+00)
  store double %81, ptr %22, align 8, !tbaa !14
  call void @llvm.lifetime.start.p0(i64 8, ptr %23) #13
  %82 = load ptr, ptr %14, align 8, !tbaa !12
  %83 = load double, ptr %82, align 8, !tbaa !14
  %84 = load double, ptr %16, align 8, !tbaa !14
  %85 = call double @llvm.fmuladd.f64(double %83, double %84, double 1.000000e+00)
  store double %85, ptr %23, align 8, !tbaa !14
  call void @llvm.lifetime.start.p0(i64 8, ptr %24) #13
  store double 1.000000e+00, ptr %24, align 8, !tbaa !14
  call void @llvm.lifetime.start.p0(i64 8, ptr %25) #13
  %86 = load double, ptr %15, align 8, !tbaa !14
  %87 = load ptr, ptr %12, align 8, !tbaa !12
  %88 = load double, ptr %87, align 8, !tbaa !14
  %89 = load double, ptr %24, align 8, !tbaa !14
  %90 = fmul double %88, %89
  %91 = fdiv double %86, %90
  %92 = call noundef double @_ZSt3powIdiEN9__gnu_cxx11__promote_2IT_T0_NS0_9__promoteIS2_Xsr3std12__is_integerIS2_EE7__valueEE6__typeENS4_IS3_Xsr3std12__is_integerIS3_EE7__valueEE6__typeEE6__typeES2_S3_(double noundef %91, i32 noundef 2)
  %93 = load double, ptr %18, align 8, !tbaa !14
  %94 = load ptr, ptr %11, align 8, !tbaa !12
  %95 = load double, ptr %94, align 8, !tbaa !14
  %96 = load double, ptr %22, align 8, !tbaa !14
  %97 = fmul double %95, %96
  %98 = fdiv double %93, %97
  %99 = call noundef double @_ZSt3powIdiEN9__gnu_cxx11__promote_2IT_T0_NS0_9__promoteIS2_Xsr3std12__is_integerIS2_EE7__valueEE6__typeENS4_IS3_Xsr3std12__is_integerIS3_EE7__valueEE6__typeEE6__typeES2_S3_(double noundef %98, i32 noundef 2)
  %100 = fadd double %92, %99
  %101 = load double, ptr %21, align 8, !tbaa !14
  %102 = load ptr, ptr %10, align 8, !tbaa !12
  %103 = load double, ptr %102, align 8, !tbaa !14
  %104 = load double, ptr %23, align 8, !tbaa !14
  %105 = fmul double %103, %104
  %106 = call noundef double @_ZSt3powIdiEN9__gnu_cxx11__promote_2IT_T0_NS0_9__promoteIS2_Xsr3std12__is_integerIS2_EE7__valueEE6__typeENS4_IS3_Xsr3std12__is_integerIS3_EE7__valueEE6__typeEE6__typeES2_S3_(double noundef %105, i32 noundef 2)
  %107 = fdiv double %101, %106
  %108 = fadd double %100, %107
  store double %108, ptr %25, align 8, !tbaa !14
  %109 = load double, ptr %25, align 8, !tbaa !14
  %110 = fcmp ogt double %109, 0.000000e+00
  br i1 %110, label %111, label %114

111:                                              ; preds = %7
  %112 = load double, ptr %25, align 8, !tbaa !14
  %113 = call double @sqrt(double noundef %112) #13, !tbaa !10
  br label %115

114:                                              ; preds = %7
  br label %115

115:                                              ; preds = %114, %111
  %116 = phi double [ %113, %111 ], [ 0.000000e+00, %114 ]
  call void @llvm.lifetime.end.p0(i64 8, ptr %25) #13
  call void @llvm.lifetime.end.p0(i64 8, ptr %24) #13
  call void @llvm.lifetime.end.p0(i64 8, ptr %23) #13
  call void @llvm.lifetime.end.p0(i64 8, ptr %22) #13
  call void @llvm.lifetime.end.p0(i64 8, ptr %21) #13
  call void @llvm.lifetime.end.p0(i64 8, ptr %20) #13
  call void @llvm.lifetime.end.p0(i64 8, ptr %19) #13
  call void @llvm.lifetime.end.p0(i64 8, ptr %18) #13
  call void @llvm.lifetime.end.p0(i64 8, ptr %17) #13
  call void @llvm.lifetime.end.p0(i64 8, ptr %16) #13
  call void @llvm.lifetime.end.p0(i64 8, ptr %15) #13
  ret double %116
}

; Function Attrs: mustprogress uwtable
define hidden noundef double @_ZN2cv3ccm18deltaCIE94TextilesERKNS_3VecIdLi3EEES4_(ptr noundef nonnull align 8 dereferenceable(24) %0, ptr noundef nonnull align 8 dereferenceable(24) %1) #0 {
  %3 = alloca ptr, align 8
  %4 = alloca ptr, align 8
  %5 = alloca double, align 8
  %6 = alloca double, align 8
  %7 = alloca double, align 8
  %8 = alloca double, align 8
  %9 = alloca double, align 8
  store ptr %0, ptr %3, align 8, !tbaa !3
  store ptr %1, ptr %4, align 8, !tbaa !3
  %10 = load ptr, ptr %3, align 8, !tbaa !3
  %11 = load ptr, ptr %4, align 8, !tbaa !3
  call void @llvm.lifetime.start.p0(i64 8, ptr %5) #13
  store double 1.000000e+00, ptr %5, align 8, !tbaa !14
  call void @llvm.lifetime.start.p0(i64 8, ptr %6) #13
  store double 1.000000e+00, ptr %6, align 8, !tbaa !14
  call void @llvm.lifetime.start.p0(i64 8, ptr %7) #13
  store double 2.000000e+00, ptr %7, align 8, !tbaa !14
  call void @llvm.lifetime.start.p0(i64 8, ptr %8) #13
  store double 4.800000e-02, ptr %8, align 8, !tbaa !14
  call void @llvm.lifetime.start.p0(i64 8, ptr %9) #13
  store double 1.400000e-02, ptr %9, align 8, !tbaa !14
  %12 = call noundef double @_ZN2cv3ccm10deltaCIE94ERKNS_3VecIdLi3EEES4_RKdS6_S6_S6_S6_(ptr noundef nonnull align 8 dereferenceable(24) %10, ptr noundef nonnull align 8 dereferenceable(24) %11, ptr noundef nonnull align 8 dereferenceable(8) %5, ptr noundef nonnull align 8 dereferenceable(8) %6, ptr noundef nonnull align 8 dereferenceable(8) %7, ptr noundef nonnull align 8 dereferenceable(8) %8, ptr noundef nonnull align 8 dereferenceable(8) %9)
  call void @llvm.lifetime.end.p0(i64 8, ptr %9) #13
  call void @llvm.lifetime.end.p0(i64 8, ptr %8) #13
  call void @llvm.lifetime.end.p0(i64 8, ptr %7) #13
  call void @llvm.lifetime.end.p0(i64 8, ptr %6) #13
  call void @llvm.lifetime.end.p0(i64 8, ptr %5) #13
  ret double %12
}