; Function Attrs: mustprogress nofree nounwind willreturn memory(write, argmem: readwrite) uwtable
define hidden noundef double @_ZN2cv3ccm18deltaCIE94TextilesERKNS_3VecIdLi3EEES4_(ptr noundef nonnull readonly align 8 captures(none) dereferenceable(24) %0, ptr noundef nonnull readonly align 8 captures(none) dereferenceable(24) %1) #2 {
  %3 = load double, ptr %0, align 8, !tbaa !6
  %4 = load double, ptr %1, align 8, !tbaa !6
  %5 = fsub double %3, %4
  %6 = getelementptr inbounds nuw i8, ptr %0, i64 8
  %7 = load double, ptr %6, align 8, !tbaa !6
  %square.i = fmul double %7, %7
  %8 = getelementptr inbounds nuw i8, ptr %0, i64 16
  %9 = load double, ptr %8, align 8, !tbaa !6
  %square30.i = fmul double %9, %9
  %10 = fadd double %square.i, %square30.i
  %sqrt39.i = tail call double @llvm.sqrt.f64(double %10)
  %11 = getelementptr inbounds nuw i8, ptr %1, i64 8
  %12 = load double, ptr %11, align 8, !tbaa !6
  %square31.i = fmul double %12, %12
  %13 = getelementptr inbounds nuw i8, ptr %1, i64 16
  %14 = load double, ptr %13, align 8, !tbaa !6
  %square32.i = fmul double %14, %14
  %15 = fadd double %square31.i, %square32.i
  %sqrt.i = tail call double @llvm.sqrt.f64(double %15)
  %16 = fsub double %sqrt39.i, %sqrt.i
  %17 = fsub double %7, %12
  %18 = fsub double %9, %14
  %square33.i = fmul double %17, %17
  %square34.i = fmul double %18, %18
  %19 = fadd double %square33.i, %square34.i
  %square35.i = fmul double %16, %16
  %20 = fsub double %19, %square35.i
  %21 = tail call double @llvm.fmuladd.f64(double %sqrt39.i, double 4.800000e-02, double 1.000000e+00)
  %22 = tail call double @llvm.fmuladd.f64(double %sqrt39.i, double 1.400000e-02, double 1.000000e+00)
  %23 = fmul double %5, 5.000000e-01
  %square36.i = fmul double %23, %23
  %24 = fdiv double %16, %21
  %square37.i = fmul double %24, %24
  %25 = fadd double %square36.i, %square37.i
  %square38.i = fmul double %22, %22
  %26 = fdiv double %20, %square38.i
  %27 = fadd double %25, %26
  %28 = fcmp ogt double %27, 0.000000e+00
  br i1 %28, label %29, label %_ZN2cv3ccm10deltaCIE94ERKNS_3VecIdLi3EEES4_RKdS6_S6_S6_S6_.exit

29:                                               ; preds = %2
  %30 = tail call double @sqrt(double noundef %27) #16, !tbaa !13
  br label %_ZN2cv3ccm10deltaCIE94ERKNS_3VecIdLi3EEES4_RKdS6_S6_S6_S6_.exit

_ZN2cv3ccm10deltaCIE94ERKNS_3VecIdLi3EEES4_RKdS6_S6_S6_S6_.exit: ; preds = %2, %29
  %31 = phi double [ %30, %29 ], [ 0.000000e+00, %2 ]
  ret double %31
}